target datalayout = "e-m:e-p270:32:32-p271:32:32-p272:64:64-i64:64-i128:128-f80:128-n8:16:32:64-S128"
target triple = "x86_64-pc-linux-gnu"

%"class.std::__cxx11::basic_string" = type { %"struct.std::__cxx11::basic_string<char>::_Alloc_hider", i64, %union.anon }
%"struct.std::__cxx11::basic_string<char>::_Alloc_hider" = type { ptr }
%union.anon = type { i64, [8 x i8] }
%"class.__gnu_cxx::__normal_iterator.14" = type { ptr }
%"struct.(anonymous namespace)::abc9_output_filter" = type <{ i8, [3 x i8], i32, %"class.std::__cxx11::basic_string", %"class.std::__cxx11::basic_string", i8, [7 x i8] }>

@.str.137 = private unnamed_addr constant [9 x i8] c"ABC: %s\0A\00", align 1

; Function Attrs: mustprogress nounwind uwtable
define linkonce_odr noundef nonnull align 8 dereferenceable(8) ptr @_ZNK9__gnu_cxx17__normal_iteratorIPKcNSt7__cxx1112basic_stringIcSt11char_traitsIcESaIcEEEE4baseEv(ptr noundef nonnull align 8 dereferenceable(8) %0) #5 comdat align 2 {
  %2 = alloca ptr, align 8
  store ptr %0, ptr %2, align 8
  %3 = load ptr, ptr %2, align 8
  %4 = getelementptr inbounds %"class.__gnu_cxx::__normal_iterator.14", ptr %3, i32 0, i32 0
  ret ptr %4
}

; Function Attrs: mustprogress nounwind uwtable
define linkonce_odr noundef nonnull align 8 dereferenceable(8) ptr @_ZN9__gnu_cxx17__normal_iteratorIPKcNSt7__cxx1112basic_stringIcSt11char_traitsIcESaIcEEEEppEv(ptr noundef nonnull align 8 dereferenceable(8) %0) #5 comdat align 2 {
  %2 = alloca ptr, align 8
  store ptr %0, ptr %2, align 8
  %3 = load ptr, ptr %2, align 8
  %4 = getelementptr inbounds %"class.__gnu_cxx::__normal_iterator.14", ptr %3, i32 0, i32 0
  %5 = load ptr, ptr %4, align 8
  %6 = getelementptr inbounds i8, ptr %5, i32 1
  store ptr %6, ptr %4, align 8
  ret ptr %3
}

; Function Attrs: mustprogress uwtable
define internal void @_ZN12_GLOBAL__N_118abc9_output_filter9next_charEc(ptr noundef nonnull align 8 dereferenceable(73) %0, i8 noundef signext %1) #4 align 2 personality ptr @__gxx_personality_v0 {
  %3 = alloca ptr, align 8
  %4 = alloca i8, align 1
  %5 = alloca %"class.std::__cxx11::basic_string", align 8
  %6 = alloca %"class.std::__cxx11::basic_string", align 8
  %7 = alloca %"class.std::__cxx11::basic_string", align 8
  %8 = alloca ptr, align 8
  %9 = alloca i32, align 4
  store ptr %0, ptr %3, align 8
  store i8 %1, ptr %4, align 1
  %10 = load ptr, ptr %3, align 8
  %11 = getelementptr inbounds %"struct.(anonymous namespace)::abc9_output_filter", ptr %10, i32 0, i32 2
  %12 = load i32, ptr %11, align 4
  %13 = icmp eq i32 %12, 0
  br i1 %13, label %14, label %20

14:                                               ; preds = %2
  %15 = load i8, ptr %4, align 1
  %16 = sext i8 %15 to i32
  %17 = icmp eq i32 %16, 27
  br i1 %17, label %18, label %20

18:                                               ; preds = %14
  %19 = getelementptr inbounds %"struct.(anonymous namespace)::abc9_output_filter", ptr %10, i32 0, i32 2
  store i32 1, ptr %19, align 4
  br label %97

20:                                               ; preds = %14, %2
  %21 = getelementptr inbounds %"struct.(anonymous namespace)::abc9_output_filter", ptr %10, i32 0, i32 2
  %22 = load i32, ptr %21, align 4
  %23 = icmp eq i32 %22, 1
  br i1 %23, label %24, label %30

24:                                               ; preds = %20
  %25 = load i8, ptr %4, align 1
  %26 = sext i8 %25 to i32
  %27 = icmp eq i32 %26, 91
  %28 = select i1 %27, i32 2, i32 0
  %29 = getelementptr inbounds %"struct.(anonymous namespace)::abc9_output_filter", ptr %10, i32 0, i32 2
  store i32 %28, ptr %29, align 4
  br label %97

30:                                               ; preds = %20
  %31 = getelementptr inbounds %"struct.(anonymous namespace)::abc9_output_filter", ptr %10, i32 0, i32 2
  %32 = load i32, ptr %31, align 4
  %33 = icmp eq i32 %32, 2
  br i1 %33, label %34, label %49

34:                                               ; preds = %30
  %35 = load i8, ptr %4, align 1
  %36 = sext i8 %35 to i32
  %37 = icmp slt i32 %36, 48
  br i1 %37, label %42, label %38

38:                                               ; preds = %34
  %39 = load i8, ptr %4, align 1
  %40 = sext i8 %39 to i32
  %41 = icmp slt i32 57, %40
  br i1 %41, label %42, label %48

42:                                               ; preds = %38, %34
  %43 = load i8, ptr %4, align 1
  %44 = sext i8 %43 to i32
  %45 = icmp ne i32 %44, 59
  br i1 %45, label %46, label %48

46:                                               ; preds = %42
  %47 = getelementptr inbounds %"struct.(anonymous namespace)::abc9_output_filter", ptr %10, i32 0, i32 2
  store i32 0, ptr %47, align 4
  br label %48

48:                                               ; preds = %46, %42, %38
  br label %97

49:                                               ; preds = %30
  %50 = getelementptr inbounds %"struct.(anonymous namespace)::abc9_output_filter", ptr %10, i32 0, i32 2
  store i32 0, ptr %50, align 4
  %51 = load i8, ptr %4, align 1
  %52 = sext i8 %51 to i32
  %53 = icmp eq i32 %52, 13
  br i1 %53, label %54, label %56

54:                                               ; preds = %49
  %55 = getelementptr inbounds %"struct.(anonymous namespace)::abc9_output_filter", ptr %10, i32 0, i32 0
  store i8 1, ptr %55, align 8
  br label %97

56:                                               ; preds = %49
  %57 = load i8, ptr %4, align 1
  %58 = sext i8 %57 to i32
  %59 = icmp eq i32 %58, 10
  br i1 %59, label %60, label %86

60:                                               ; preds = %56
  %61 = getelementptr inbounds %"struct.(anonymous namespace)::abc9_output_filter", ptr %10, i32 0, i32 3
  call void @_ZNSt7__cxx1112basic_stringIcSt11char_traitsIcESaIcEEC1ERKS4_(ptr noundef nonnull align 8 dereferenceable(32) %6, ptr noundef nonnull align 8 dereferenceable(32) %61)
  %62 = getelementptr inbounds %"struct.(anonymous namespace)::abc9_output_filter", ptr %10, i32 0, i32 4
  invoke void @_ZNSt7__cxx1112basic_stringIcSt11char_traitsIcESaIcEEC1ERKS4_(ptr noundef nonnull align 8 dereferenceable(32) %7, ptr noundef nonnull align 8 dereferenceable(32) %62)
          to label %63 unwind label %72

63:                                               ; preds = %60
  %64 = getelementptr inbounds %"struct.(anonymous namespace)::abc9_output_filter", ptr %10, i32 0, i32 5
  %65 = load i8, ptr %64, align 8
  %66 = trunc i8 %65 to i1
  invoke void @_ZN12_GLOBAL__N_115replace_tempdirENSt7__cxx1112basic_stringIcSt11char_traitsIcESaIcEEES5_b(ptr dead_on_unwind writable sret(%"class.std::__cxx11::basic_string") align 8 %5, ptr noundef %6, ptr noundef %7, i1 noundef zeroext %66)
          to label %67 unwind label %76

67:                                               ; preds = %63
  %68 = call noundef ptr @_ZNKSt7__cxx1112basic_stringIcSt11char_traitsIcESaIcEE5c_strEv(ptr noundef nonnull align 8 dereferenceable(32) %5) #3
  invoke void (ptr, ...) @_ZN5Yosys3logEPKcz(ptr noundef @.str.137, ptr noundef %68)
          to label %69 unwind label %80

69:                                               ; preds = %67
  call void @_ZNSt7__cxx1112basic_stringIcSt11char_traitsIcESaIcEED1Ev(ptr noundef nonnull align 8 dereferenceable(32) %5) #3
  call void @_ZNSt7__cxx1112basic_stringIcSt11char_traitsIcESaIcEED1Ev(ptr noundef nonnull align 8 dereferenceable(32) %7) #3
  call void @_ZNSt7__cxx1112basic_stringIcSt11char_traitsIcESaIcEED1Ev(ptr noundef nonnull align 8 dereferenceable(32) %6) #3
  %70 = getelementptr inbounds %"struct.(anonymous namespace)::abc9_output_filter", ptr %10, i32 0, i32 0
  store i8 0, ptr %70, align 8
  %71 = getelementptr inbounds %"struct.(anonymous namespace)::abc9_output_filter", ptr %10, i32 0, i32 3
  call void @_ZNSt7__cxx1112basic_stringIcSt11char_traitsIcESaIcEE5clearEv(ptr noundef nonnull align 8 dereferenceable(32) %71) #3
  br label %97

72:                                               ; preds = %60
  %73 = landingpad { ptr, i32 }
          cleanup
  %74 = extractvalue { ptr, i32 } %73, 0
  store ptr %74, ptr %8, align 8
  %75 = extractvalue { ptr, i32 } %73, 1
  store i32 %75, ptr %9, align 4
  br label %85

76:                                               ; preds = %63
  %77 = landingpad { ptr, i32 }
          cleanup
  %78 = extractvalue { ptr, i32 } %77, 0
  store ptr %78, ptr %8, align 8
  %79 = extractvalue { ptr, i32 } %77, 1
  store i32 %79, ptr %9, align 4
  br label %84

80:                                               ; preds = %67
  %81 = landingpad { ptr, i32 }
          cleanup
  %82 = extractvalue { ptr, i32 } %81, 0
  store ptr %82, ptr %8, align 8
  %83 = extractvalue { ptr, i32 } %81, 1
  store i32 %83, ptr %9, align 4
  call void @_ZNSt7__cxx1112basic_stringIcSt11char_traitsIcESaIcEED1Ev(ptr noundef nonnull align 8 dereferenceable(32) %5) #3
  br label %84

84:                                               ; preds = %80, %76
  call void @_ZNSt7__cxx1112basic_stringIcSt11char_traitsIcESaIcEED1Ev(ptr noundef nonnull align 8 dereferenceable(32) %7) #3
  br label %85

85:                                               ; preds = %84, %72
  call void @_ZNSt7__cxx1112basic_stringIcSt11char_traitsIcESaIcEED1Ev(ptr noundef nonnull align 8 dereferenceable(32) %6) #3
  br label %98

86:                                               ; preds = %56
  %87 = getelementptr inbounds %"struct.(anonymous namespace)::abc9_output_filter", ptr %10, i32 0, i32 0
  %88 = load i8, ptr %87, align 8
  %89 = trunc i8 %88 to i1
  br i1 %89, label %90, label %93

90:                                               ; preds = %86
  %91 = getelementptr inbounds %"struct.(anonymous namespace)::abc9_output_filter", ptr %10, i32 0, i32 0
  store i8 0, ptr %91, align 8
  %92 = getelementptr inbounds %"struct.(anonymous namespace)::abc9_output_filter", ptr %10, i32 0, i32 3
  call void @_ZNSt7__cxx1112basic_stringIcSt11char_traitsIcESaIcEE5clearEv(ptr noundef nonnull align 8 dereferenceable(32) %92) #3
  br label %93

93:                                               ; preds = %90, %86
  %94 = load i8, ptr %4, align 1
  %95 = getelementptr inbounds %"struct.(anonymous namespace)::abc9_output_filter", ptr %10, i32 0, i32 3
  %96 = call noundef nonnull align 8 dereferenceable(32) ptr @_ZNSt7__cxx1112basic_stringIcSt11char_traitsIcESaIcEEpLEc(ptr noundef nonnull align 8 dereferenceable(32) %95, i8 noundef signext %94)
  br label %97

97:                                               ; preds = %93, %69, %54, %48, %24, %18
  ret void

98:                                               ; preds = %85
  %99 = load ptr, ptr %8, align 8
  %100 = load i32, ptr %9, align 4
  %101 = insertvalue { ptr, i32 } poison, ptr %99, 0
  %102 = insertvalue { ptr, i32 } %101, i32 %100, 1
  resume { ptr, i32 } %102
}

; Function Attrs: mustprogress nounwind uwtable
define linkonce_odr noundef nonnull align 1 dereferenceable(1) ptr @_ZNK9__gnu_cxx17__normal_iteratorIPKcNSt7__cxx1112basic_stringIcSt11char_traitsIcESaIcEEEEdeEv(ptr noundef nonnull align 8 dereferenceable(8) %0) #5 comdat align 2 {
  %2 = alloca ptr, align 8
  store ptr %0, ptr %2, align 8
  %3 = load ptr, ptr %2, align 8
  %4 = getelementptr inbounds %"class.__gnu_cxx::__normal_iterator.14", ptr %3, i32 0, i32 0
  %5 = load ptr, ptr %4, align 8
  ret ptr %5
}

; Function Attrs: mustprogress nounwind uwtable
define linkonce_odr noundef zeroext i1 @_ZN9__gnu_cxxneIPKcNSt7__cxx1112basic_stringIcSt11char_traitsIcESaIcEEEEEbRKNS_17__normal_iteratorIT_T0_EESE_(ptr noundef nonnull align 8 dereferenceable(8) %0, ptr noundef nonnull align 8 dereferenceable(8) %1) #5 comdat {
  %3 = alloca ptr, align 8
  %4 = alloca ptr, align 8
  store ptr %0, ptr %3, align 8
  store ptr %1, ptr %4, align 8
  %5 = load ptr, ptr %3, align 8
  %6 = call noundef nonnull align 8 dereferenceable(8) ptr @_ZNK9__gnu_cxx17__normal_iteratorIPKcNSt7__cxx1112basic_stringIcSt11char_traitsIcESaIcEEEE4baseEv(ptr noundef nonnull align 8 dereferenceable(8) %5) #3
  %7 = load ptr, ptr %6, align 8
  %8 = load ptr, ptr %4, align 8
  %9 = call noundef nonnull align 8 dereferenceable(8) ptr @_ZNK9__gnu_cxx17__normal_iteratorIPKcNSt7__cxx1112basic_stringIcSt11char_traitsIcESaIcEEEE4baseEv(ptr noundef nonnull align 8 dereferenceable(8) %8) #3
  %10 = load ptr, ptr %9, align 8
  %11 = icmp ne ptr %7, %10
  ret i1 %11
}

; Function Attrs: mustprogress uwtable
define internal void @_ZN12_GLOBAL__N_118abc9_output_filter9next_lineERKNSt7__cxx1112basic_stringIcSt11char_traitsIcESaIcEEE(ptr noundef nonnull align 8 dereferenceable(73) %0, ptr noundef nonnull align 8 dereferenceable(32) %1) #4 align 2 {
  %3 = alloca ptr, align 8
  %4 = alloca ptr, align 8
  %5 = alloca ptr, align 8
  %6 = alloca %"class.__gnu_cxx::__normal_iterator.14", align 8
  %7 = alloca %"class.__gnu_cxx::__normal_iterator.14", align 8
  %8 = alloca i8, align 1
  store ptr %0, ptr %3, align 8
  store ptr %1, ptr %4, align 8
  %9 = load ptr, ptr %3, align 8
  %10 = load ptr, ptr %4, align 8
  store ptr %10, ptr %5, align 8
  %11 = load ptr, ptr %5, align 8
  %12 = call ptr @_ZNKSt7__cxx1112basic_stringIcSt11char_traitsIcESaIcEE5beginEv(ptr noundef nonnull align 8 dereferenceable(32) %11) #3
  %13 = getelementptr inbounds %"class.__gnu_cxx::__normal_iterator.14", ptr %6, i32 0, i32 0
  store ptr %12, ptr %13, align 8
  %14 = load ptr, ptr %5, align 8
  %15 = call ptr @_ZNKSt7__cxx1112basic_stringIcSt11char_traitsIcESaIcEE3endEv(ptr noundef nonnull align 8 dereferenceable(32) %14) #3
  %16 = getelementptr inbounds %"class.__gnu_cxx::__normal_iterator.14", ptr %7, i32 0, i32 0
  store ptr %15, ptr %16, align 8
  br label %17

17:                                               ; preds = %23, %2
  %18 = call noundef zeroext i1 @_ZN9__gnu_cxxneIPKcNSt7__cxx1112basic_stringIcSt11char_traitsIcESaIcEEEEEbRKNS_17__normal_iteratorIT_T0_EESE_(ptr noundef nonnull align 8 dereferenceable(8) %6, ptr noundef nonnull align 8 dereferenceable(8) %7) #3
  br i1 %18, label %19, label %25

19:                                               ; preds = %17
  %20 = call noundef nonnull align 1 dereferenceable(1) ptr @_ZNK9__gnu_cxx17__normal_iteratorIPKcNSt7__cxx1112basic_stringIcSt11char_traitsIcESaIcEEEEdeEv(ptr noundef nonnull align 8 dereferenceable(8) %6) #3
  %21 = load i8, ptr %20, align 1
  store i8 %21, ptr %8, align 1
  %22 = load i8, ptr %8, align 1
  call void @_ZN12_GLOBAL__N_118abc9_output_filter9next_charEc(ptr noundef nonnull align 8 dereferenceable(73) %9, i8 noundef signext %22)
  br label %23

23:                                               ; preds = %19
  %24 = call noundef nonnull align 8 dereferenceable(8) ptr @_ZN9__gnu_cxx17__normal_iteratorIPKcNSt7__cxx1112basic_stringIcSt11char_traitsIcESaIcEEEEppEv(ptr noundef nonnull align 8 dereferenceable(8) %6) #3
  br label %17

25:                                               ; preds = %17
  ret void
}