; Function Attrs: mustprogress uwtable
define internal void @_ZN12_GLOBAL__N_118abc9_output_filter9next_lineERKNSt7__cxx1112basic_stringIcSt11char_traitsIcESaIcEEE(ptr noundef nonnull align 8 dereferenceable(73) %0, ptr noundef nonnull align 8 dereferenceable(32) %1) #3 align 2 personality ptr @__gxx_personality_v0 {
  %3 = alloca %"class.std::__cxx11::basic_string", align 8
  %4 = alloca %"class.std::__cxx11::basic_string", align 8
  %5 = alloca %"class.std::__cxx11::basic_string", align 8
  %6 = tail call ptr @_ZNKSt7__cxx1112basic_stringIcSt11char_traitsIcESaIcEE5beginEv(ptr noundef nonnull align 8 dereferenceable(32) %1) #22
  %7 = tail call ptr @_ZNKSt7__cxx1112basic_stringIcSt11char_traitsIcESaIcEE3endEv(ptr noundef nonnull align 8 dereferenceable(32) %1) #22
  %.not7 = icmp eq ptr %6, %7
  br i1 %.not7, label %._crit_edge, label %.lr.ph

.lr.ph:                                           ; preds = %2
  %8 = getelementptr inbounds i8, ptr %0, i64 4
  %9 = getelementptr inbounds i8, ptr %0, i64 8
  %10 = getelementptr inbounds i8, ptr %0, i64 40
  %11 = getelementptr inbounds i8, ptr %0, i64 72
  br label %12

12:                                               ; preds = %.lr.ph, %_ZN12_GLOBAL__N_118abc9_output_filter9next_charEc.exit
  %.sroa.04.08 = phi ptr [ %6, %.lr.ph ], [ %50, %_ZN12_GLOBAL__N_118abc9_output_filter9next_charEc.exit ]
  %13 = load i8, ptr %.sroa.04.08, align 1
  call void @llvm.lifetime.start.p0(i64 32, ptr nonnull %3)
  call void @llvm.lifetime.start.p0(i64 32, ptr nonnull %4)
  call void @llvm.lifetime.start.p0(i64 32, ptr nonnull %5)
  %14 = load i32, ptr %8, align 4
  %15 = icmp eq i32 %14, 0
  %16 = icmp eq i8 %13, 27
  %or.cond.i = and i1 %16, %15
  br i1 %or.cond.i, label %17, label %18

17:                                               ; preds = %12
  store i32 1, ptr %8, align 4
  br label %_ZN12_GLOBAL__N_118abc9_output_filter9next_charEc.exit

18:                                               ; preds = %12
  switch i32 %14, label %26 [
    i32 1, label %19
    i32 2, label %22
  ]

19:                                               ; preds = %18
  %20 = icmp eq i8 %13, 91
  %21 = select i1 %20, i32 2, i32 0
  store i32 %21, ptr %8, align 4
  br label %_ZN12_GLOBAL__N_118abc9_output_filter9next_charEc.exit

22:                                               ; preds = %18
  %23 = add i8 %13, -58
  %or.cond5.i = icmp ult i8 %23, -10
  %24 = icmp ne i8 %13, 59
  %or.cond8.i = and i1 %24, %or.cond5.i
  br i1 %or.cond8.i, label %25, label %_ZN12_GLOBAL__N_118abc9_output_filter9next_charEc.exit

25:                                               ; preds = %22
  store i32 0, ptr %8, align 4
  br label %_ZN12_GLOBAL__N_118abc9_output_filter9next_charEc.exit

26:                                               ; preds = %18
  store i32 0, ptr %8, align 4
  switch i8 %13, label %44 [
    i8 13, label %27
    i8 10, label %28
  ]

27:                                               ; preds = %26
  store i8 1, ptr %0, align 8
  br label %_ZN12_GLOBAL__N_118abc9_output_filter9next_charEc.exit

28:                                               ; preds = %26
  call void @_ZNSt7__cxx1112basic_stringIcSt11char_traitsIcESaIcEEC1ERKS4_(ptr noundef nonnull align 8 dereferenceable(32) %4, ptr noundef nonnull align 8 dereferenceable(32) %9)
  invoke void @_ZNSt7__cxx1112basic_stringIcSt11char_traitsIcESaIcEEC1ERKS4_(ptr noundef nonnull align 8 dereferenceable(32) %5, ptr noundef nonnull align 8 dereferenceable(32) %10)
          to label %29 unwind label %36

29:                                               ; preds = %28
  %30 = load i8, ptr %11, align 8
  %31 = and i8 %30, 1
  %32 = icmp ne i8 %31, 0
  invoke fastcc void @_ZN12_GLOBAL__N_115replace_tempdirENSt7__cxx1112basic_stringIcSt11char_traitsIcESaIcEEES5_b(ptr dead_on_unwind noalias nonnull writable align 8 %3, ptr noundef nonnull %4, ptr noundef nonnull %5, i1 noundef zeroext %32)
          to label %33 unwind label %38

33:                                               ; preds = %29
  %34 = call noundef ptr @_ZNKSt7__cxx1112basic_stringIcSt11char_traitsIcESaIcEE5c_strEv(ptr noundef nonnull align 8 dereferenceable(32) %3) #22
  invoke void (ptr, ...) @_ZN5Yosys3logEPKcz(ptr noundef nonnull @.str.137, ptr noundef %34)
          to label %35 unwind label %40

35:                                               ; preds = %33
  call void @_ZNSt7__cxx1112basic_stringIcSt11char_traitsIcESaIcEED1Ev(ptr noundef nonnull align 8 dereferenceable(32) %3) #22
  call void @_ZNSt7__cxx1112basic_stringIcSt11char_traitsIcESaIcEED1Ev(ptr noundef nonnull align 8 dereferenceable(32) %5) #22
  call void @_ZNSt7__cxx1112basic_stringIcSt11char_traitsIcESaIcEED1Ev(ptr noundef nonnull align 8 dereferenceable(32) %4) #22
  store i8 0, ptr %0, align 8
  call void @_ZNSt7__cxx1112basic_stringIcSt11char_traitsIcESaIcEE5clearEv(ptr noundef nonnull align 8 dereferenceable(32) %9) #22
  br label %_ZN12_GLOBAL__N_118abc9_output_filter9next_charEc.exit

36:                                               ; preds = %28
  %37 = landingpad { ptr, i32 }
          cleanup
  br label %43

38:                                               ; preds = %29
  %39 = landingpad { ptr, i32 }
          cleanup
  br label %42

40:                                               ; preds = %33
  %41 = landingpad { ptr, i32 }
          cleanup
  call void @_ZNSt7__cxx1112basic_stringIcSt11char_traitsIcESaIcEED1Ev(ptr noundef nonnull align 8 dereferenceable(32) %3) #22
  br label %42

42:                                               ; preds = %40, %38
  %.pn.i = phi { ptr, i32 } [ %41, %40 ], [ %39, %38 ]
  call void @_ZNSt7__cxx1112basic_stringIcSt11char_traitsIcESaIcEED1Ev(ptr noundef nonnull align 8 dereferenceable(32) %5) #22
  br label %43

43:                                               ; preds = %42, %36
  %.pn.pn.i = phi { ptr, i32 } [ %.pn.i, %42 ], [ %37, %36 ]
  call void @_ZNSt7__cxx1112basic_stringIcSt11char_traitsIcESaIcEED1Ev(ptr noundef nonnull align 8 dereferenceable(32) %4) #22
  resume { ptr, i32 } %.pn.pn.i

44:                                               ; preds = %26
  %45 = load i8, ptr %0, align 8
  %46 = and i8 %45, 1
  %.not.i = icmp eq i8 %46, 0
  br i1 %.not.i, label %48, label %47

47:                                               ; preds = %44
  store i8 0, ptr %0, align 8
  call void @_ZNSt7__cxx1112basic_stringIcSt11char_traitsIcESaIcEE5clearEv(ptr noundef nonnull align 8 dereferenceable(32) %9) #22
  br label %48

48:                                               ; preds = %47, %44
  %49 = call noundef nonnull align 8 dereferenceable(32) ptr @_ZNSt7__cxx1112basic_stringIcSt11char_traitsIcESaIcEEpLEc(ptr noundef nonnull align 8 dereferenceable(32) %9, i8 noundef signext %13)
  br label %_ZN12_GLOBAL__N_118abc9_output_filter9next_charEc.exit

_ZN12_GLOBAL__N_118abc9_output_filter9next_charEc.exit: ; preds = %17, %19, %22, %25, %27, %35, %48
  call void @llvm.lifetime.end.p0(i64 32, ptr nonnull %3)
  call void @llvm.lifetime.end.p0(i64 32, ptr nonnull %4)
  call void @llvm.lifetime.end.p0(i64 32, ptr nonnull %5)
  %50 = getelementptr inbounds i8, ptr %.sroa.04.08, i64 1
  %.not = icmp eq ptr %50, %7
  br i1 %.not, label %._crit_edge, label %12

._crit_edge:                                      ; preds = %_ZN12_GLOBAL__N_118abc9_output_filter9next_charEc.exit, %2
  ret void
}